; ModuleID = 'source-C-CXX/52/299.c'
source_filename = "source-C-CXX/52/299.c"
target datalayout = "e-m:e-p270:32:32-p271:32:32-p272:64:64-i64:64-f80:128-n8:16:32:64-S128"
target triple = "x86_64-pc-linux-gnu"

@.str = private unnamed_addr constant [3 x i8] c"%d\00", align 1
@.str.1 = private unnamed_addr constant [4 x i8] c"%d,\00", align 1

; Function Attrs: nofree nounwind sspstrong uwtable
define dso_local void @main() local_unnamed_addr #0 {
  %1 = alloca [300 x i32], align 16
  %2 = alloca [300 x i32], align 16
  %3 = alloca i32, align 4
  %4 = bitcast [300 x i32]* %1 to i8*
  call void @llvm.lifetime.start.p0i8(i64 1200, i8* nonnull %4) #4
  call void @llvm.memset.p0i8.i64(i8* noundef nonnull align 16 dereferenceable(1200) %4, i8 0, i64 1200, i1 false)
  %5 = bitcast [300 x i32]* %2 to i8*
  call void @llvm.lifetime.start.p0i8(i64 1200, i8* nonnull %5) #4
  call void @llvm.memset.p0i8.i64(i8* noundef nonnull align 16 dereferenceable(1200) %5, i8 0, i64 1200, i1 false)
  %6 = bitcast i32* %3 to i8*
  call void @llvm.lifetime.start.p0i8(i64 4, i8* nonnull %6) #4
  %7 = call i32 (i8*, ...) @__isoc99_scanf(i8* getelementptr inbounds ([3 x i8], [3 x i8]* @.str, i64 0, i64 0), i32* nonnull %3)
  %8 = load i32, i32* %3, align 4, !tbaa !5
  %9 = icmp sgt i32 %8, 0
  br i1 %9, label %12, label %10

10:                                               ; preds = %0
  %11 = getelementptr inbounds [300 x i32], [300 x i32]* %2, i64 0, i64 0
  store i32 0, i32* %11, align 16, !tbaa !5
  br label %70

12:                                               ; preds = %0, %12
  %13 = phi i64 [ %16, %12 ], [ 0, %0 ]
  %14 = getelementptr inbounds [300 x i32], [300 x i32]* %1, i64 0, i64 %13
  %15 = call i32 (i8*, ...) @__isoc99_scanf(i8* getelementptr inbounds ([3 x i8], [3 x i8]* @.str, i64 0, i64 0), i32* nonnull %14)
  %16 = add nuw nsw i64 %13, 1
  %17 = load i32, i32* %3, align 4, !tbaa !5
  %18 = sext i32 %17 to i64
  %19 = icmp slt i64 %16, %18
  br i1 %19, label %12, label %20, !llvm.loop !9

20:                                               ; preds = %12
  %21 = getelementptr inbounds [300 x i32], [300 x i32]* %1, i64 0, i64 0
  %22 = load i32, i32* %21, align 16, !tbaa !5
  %23 = getelementptr inbounds [300 x i32], [300 x i32]* %2, i64 0, i64 0
  store i32 %22, i32* %23, align 16, !tbaa !5
  %24 = icmp sgt i32 %17, 1
  br i1 %24, label %25, label %70

25:                                               ; preds = %20
  %26 = zext i32 %17 to i64
  br label %27

27:                                               ; preds = %25, %59
  %28 = phi i64 [ 1, %25 ], [ %61, %59 ]
  %29 = phi i32 [ 1, %25 ], [ %60, %59 ]
  %30 = icmp sgt i32 %29, 0
  br i1 %30, label %31, label %50

31:                                               ; preds = %27
  %32 = getelementptr inbounds [300 x i32], [300 x i32]* %1, i64 0, i64 %28
  %33 = load i32, i32* %32, align 4, !tbaa !5
  %34 = zext i32 %29 to i64
  br label %40

35:                                               ; preds = %59
  %36 = add i32 %60, -1
  %37 = icmp sgt i32 %60, 1
  br i1 %37, label %38, label %70

38:                                               ; preds = %35
  %39 = zext i32 %36 to i64
  br label %63

40:                                               ; preds = %31, %45
  %41 = phi i64 [ 0, %31 ], [ %46, %45 ]
  %42 = getelementptr inbounds [300 x i32], [300 x i32]* %2, i64 0, i64 %41
  %43 = load i32, i32* %42, align 4, !tbaa !5
  %44 = icmp eq i32 %33, %43
  br i1 %44, label %48, label %45

45:                                               ; preds = %40
  %46 = add nuw nsw i64 %41, 1
  %47 = icmp eq i64 %46, %34
  br i1 %47, label %53, label %40, !llvm.loop !11

48:                                               ; preds = %40
  %49 = trunc i64 %41 to i32
  br label %50

50:                                               ; preds = %48, %27
  %51 = phi i32 [ 0, %27 ], [ %49, %48 ]
  %52 = icmp eq i32 %51, %29
  br i1 %52, label %53, label %59

53:                                               ; preds = %45, %50
  %54 = getelementptr inbounds [300 x i32], [300 x i32]* %1, i64 0, i64 %28
  %55 = load i32, i32* %54, align 4, !tbaa !5
  %56 = sext i32 %29 to i64
  %57 = getelementptr inbounds [300 x i32], [300 x i32]* %2, i64 0, i64 %56
  store i32 %55, i32* %57, align 4, !tbaa !5
  %58 = add nuw nsw i32 %29, 1
  br label %59

59:                                               ; preds = %50, %53
  %60 = phi i32 [ %58, %53 ], [ %29, %50 ]
  %61 = add nuw nsw i64 %28, 1
  %62 = icmp eq i64 %61, %26
  br i1 %62, label %35, label %27, !llvm.loop !12

63:                                               ; preds = %38, %63
  %64 = phi i64 [ 0, %38 ], [ %68, %63 ]
  %65 = getelementptr inbounds [300 x i32], [300 x i32]* %2, i64 0, i64 %64
  %66 = load i32, i32* %65, align 4, !tbaa !5
  %67 = call i32 (i8*, ...) @printf(i8* nonnull dereferenceable(1) getelementptr inbounds ([4 x i8], [4 x i8]* @.str.1, i64 0, i64 0), i32 %66)
  %68 = add nuw nsw i64 %64, 1
  %69 = icmp eq i64 %68, %39
  br i1 %69, label %70, label %63, !llvm.loop !13

70:                                               ; preds = %63, %10, %20, %35
  %71 = phi i32 [ %36, %35 ], [ 0, %20 ], [ 0, %10 ], [ %36, %63 ]
  %72 = sext i32 %71 to i64
  %73 = getelementptr inbounds [300 x i32], [300 x i32]* %2, i64 0, i64 %72
  %74 = load i32, i32* %73, align 4, !tbaa !5
  %75 = call i32 (i8*, ...) @printf(i8* nonnull dereferenceable(1) getelementptr inbounds ([3 x i8], [3 x i8]* @.str, i64 0, i64 0), i32 %74)
  call void @llvm.lifetime.end.p0i8(i64 4, i8* nonnull %6) #4
  call void @llvm.lifetime.end.p0i8(i64 1200, i8* nonnull %5) #4
  call void @llvm.lifetime.end.p0i8(i64 1200, i8* nonnull %4) #4
  ret void
}

; Function Attrs: argmemonly mustprogress nofree nosync nounwind willreturn
declare void @llvm.lifetime.start.p0i8(i64 immarg, i8* nocapture) #1

; Function Attrs: argmemonly mustprogress nofree nounwind willreturn writeonly
declare void @llvm.memset.p0i8.i64(i8* nocapture writeonly, i8, i64, i1 immarg) #2

; Function Attrs: nofree nounwind
declare noundef i32 @__isoc99_scanf(i8* nocapture noundef readonly, ...) local_unnamed_addr #3

; Function Attrs: nofree nounwind
declare noundef i32 @printf(i8* nocapture noundef readonly, ...) local_unnamed_addr #3

; Function Attrs: argmemonly mustprogress nofree nosync nounwind willreturn
declare void @llvm.lifetime.end.p0i8(i64 immarg, i8* nocapture) #1


!llvm.module.flags = !{!0, !1, !2, !3}
!llvm.ident = !{!4}

!0 = !{i32 1, !"wchar_size", i32 4}
!1 = !{i32 7, !"PIC Level", i32 2}
!2 = !{i32 7, !"PIE Level", i32 2}
!3 = !{i32 7, !"uwtable", i32 1}
!4 = !{!"clang version 13.0.0"}
!5 = !{!6, !6, i64 0}
!6 = !{!"int", !7, i64 0}
!7 = !{!"omnipotent char", !8, i64 0}
!8 = !{!"Simple C/C++ TBAA"}
!9 = distinct !{!9, !10}
!10 = !{!"llvm.loop.mustprogress"}
!11 = distinct !{!11, !10}
!12 = distinct !{!12, !10}
!13 = distinct !{!13, !10}
